target datalayout = "e-m:e-p270:32:32-p271:32:32-p272:64:64-i64:64-i128:128-f80:128-n8:16:32:64-S128"
target triple = "x86_64-pc-linux-gnu"

%struct.stbtt__buf = type { ptr, i32, i32 }
%struct.stbtt_fontinfo = type { ptr, ptr, i32, i32, i32, i32, i32, i32, i32, i32, i32, i32, i32, i32, %struct.stbtt__buf, %struct.stbtt__buf, %struct.stbtt__buf, %struct.stbtt__buf, %struct.stbtt__buf, %struct.stbtt__buf }

; Function Attrs: nounwind uwtable
define signext i16 @ttSHORT(ptr noundef %0) #0 {
  %2 = alloca ptr, align 8
  store ptr %0, ptr %2, align 8, !tbaa !25
  %3 = load ptr, ptr %2, align 8, !tbaa !25
  %4 = getelementptr inbounds i8, ptr %3, i64 0
  %5 = load i8, ptr %4, align 1, !tbaa !13
  %6 = zext i8 %5 to i32
  %7 = mul nsw i32 %6, 256
  %8 = load ptr, ptr %2, align 8, !tbaa !25
  %9 = getelementptr inbounds i8, ptr %8, i64 1
  %10 = load i8, ptr %9, align 1, !tbaa !13
  %11 = zext i8 %10 to i32
  %12 = add nsw i32 %7, %11
  %13 = trunc i32 %12 to i16
  ret i16 %13
}

; Function Attrs: nounwind uwtable
define zeroext i16 @ttUSHORT(ptr noundef %0) #0 {
  %2 = alloca ptr, align 8
  store ptr %0, ptr %2, align 8, !tbaa !25
  %3 = load ptr, ptr %2, align 8, !tbaa !25
  %4 = getelementptr inbounds i8, ptr %3, i64 0
  %5 = load i8, ptr %4, align 1, !tbaa !13
  %6 = zext i8 %5 to i32
  %7 = mul nsw i32 %6, 256
  %8 = load ptr, ptr %2, align 8, !tbaa !25
  %9 = getelementptr inbounds i8, ptr %8, i64 1
  %10 = load i8, ptr %9, align 1, !tbaa !13
  %11 = zext i8 %10 to i32
  %12 = add nsw i32 %7, %11
  %13 = trunc i32 %12 to i16
  ret i16 %13
}

; Function Attrs: nounwind uwtable
define void @stbtt_GetGlyphHMetrics(ptr noundef %0, i32 noundef %1, ptr noundef %2, ptr noundef %3) #0 {
  %5 = alloca ptr, align 8
  %6 = alloca i32, align 4
  %7 = alloca ptr, align 8
  %8 = alloca ptr, align 8
  %9 = alloca i16, align 2
  store ptr %0, ptr %5, align 8, !tbaa !28
  store i32 %1, ptr %6, align 4, !tbaa !14
  store ptr %2, ptr %7, align 8, !tbaa !22
  store ptr %3, ptr %8, align 8, !tbaa !22
  call void @llvm.lifetime.start.p0(i64 2, ptr %9) #8
  %10 = load ptr, ptr %5, align 8, !tbaa !28
  %11 = getelementptr inbounds nuw %struct.stbtt_fontinfo, ptr %10, i32 0, i32 1
  %12 = load ptr, ptr %11, align 8, !tbaa !32
  %13 = load ptr, ptr %5, align 8, !tbaa !28
  %14 = getelementptr inbounds nuw %struct.stbtt_fontinfo, ptr %13, i32 0, i32 7
  %15 = load i32, ptr %14, align 4, !tbaa !37
  %16 = sext i32 %15 to i64
  %17 = getelementptr inbounds i8, ptr %12, i64 %16
  %18 = getelementptr inbounds i8, ptr %17, i64 34
  %19 = call zeroext i16 @ttUSHORT(ptr noundef %18)
  store i16 %19, ptr %9, align 2, !tbaa !45
  %20 = load i32, ptr %6, align 4, !tbaa !14
  %21 = load i16, ptr %9, align 2, !tbaa !45
  %22 = zext i16 %21 to i32
  %23 = icmp slt i32 %20, %22
  br i1 %23, label %24, label %64

24:                                               ; preds = %4
  %25 = load ptr, ptr %7, align 8, !tbaa !22
  %26 = icmp ne ptr %25, null
  br i1 %26, label %27, label %43

27:                                               ; preds = %24
  %28 = load ptr, ptr %5, align 8, !tbaa !28
  %29 = getelementptr inbounds nuw %struct.stbtt_fontinfo, ptr %28, i32 0, i32 1
  %30 = load ptr, ptr %29, align 8, !tbaa !32
  %31 = load ptr, ptr %5, align 8, !tbaa !28
  %32 = getelementptr inbounds nuw %struct.stbtt_fontinfo, ptr %31, i32 0, i32 8
  %33 = load i32, ptr %32, align 8, !tbaa !38
  %34 = sext i32 %33 to i64
  %35 = getelementptr inbounds i8, ptr %30, i64 %34
  %36 = load i32, ptr %6, align 4, !tbaa !14
  %37 = mul nsw i32 4, %36
  %38 = sext i32 %37 to i64
  %39 = getelementptr inbounds i8, ptr %35, i64 %38
  %40 = call signext i16 @ttSHORT(ptr noundef %39)
  %41 = sext i16 %40 to i32
  %42 = load ptr, ptr %7, align 8, !tbaa !22
  store i32 %41, ptr %42, align 4, !tbaa !14
  br label %43

43:                                               ; preds = %27, %24
  %44 = load ptr, ptr %8, align 8, !tbaa !22
  %45 = icmp ne ptr %44, null
  br i1 %45, label %46, label %63

46:                                               ; preds = %43
  %47 = load ptr, ptr %5, align 8, !tbaa !28
  %48 = getelementptr inbounds nuw %struct.stbtt_fontinfo, ptr %47, i32 0, i32 1
  %49 = load ptr, ptr %48, align 8, !tbaa !32
  %50 = load ptr, ptr %5, align 8, !tbaa !28
  %51 = getelementptr inbounds nuw %struct.stbtt_fontinfo, ptr %50, i32 0, i32 8
  %52 = load i32, ptr %51, align 8, !tbaa !38
  %53 = sext i32 %52 to i64
  %54 = getelementptr inbounds i8, ptr %49, i64 %53
  %55 = load i32, ptr %6, align 4, !tbaa !14
  %56 = mul nsw i32 4, %55
  %57 = sext i32 %56 to i64
  %58 = getelementptr inbounds i8, ptr %54, i64 %57
  %59 = getelementptr inbounds i8, ptr %58, i64 2
  %60 = call signext i16 @ttSHORT(ptr noundef %59)
  %61 = sext i16 %60 to i32
  %62 = load ptr, ptr %8, align 8, !tbaa !22
  store i32 %61, ptr %62, align 4, !tbaa !14
  br label %63

63:                                               ; preds = %46, %43
  br label %113

64:                                               ; preds = %4
  %65 = load ptr, ptr %7, align 8, !tbaa !22
  %66 = icmp ne ptr %65, null
  br i1 %66, label %67, label %85

67:                                               ; preds = %64
  %68 = load ptr, ptr %5, align 8, !tbaa !28
  %69 = getelementptr inbounds nuw %struct.stbtt_fontinfo, ptr %68, i32 0, i32 1
  %70 = load ptr, ptr %69, align 8, !tbaa !32
  %71 = load ptr, ptr %5, align 8, !tbaa !28
  %72 = getelementptr inbounds nuw %struct.stbtt_fontinfo, ptr %71, i32 0, i32 8
  %73 = load i32, ptr %72, align 8, !tbaa !38
  %74 = sext i32 %73 to i64
  %75 = getelementptr inbounds i8, ptr %70, i64 %74
  %76 = load i16, ptr %9, align 2, !tbaa !45
  %77 = zext i16 %76 to i32
  %78 = sub nsw i32 %77, 1
  %79 = mul nsw i32 4, %78
  %80 = sext i32 %79 to i64
  %81 = getelementptr inbounds i8, ptr %75, i64 %80
  %82 = call signext i16 @ttSHORT(ptr noundef %81)
  %83 = sext i16 %82 to i32
  %84 = load ptr, ptr %7, align 8, !tbaa !22
  store i32 %83, ptr %84, align 4, !tbaa !14
  br label %85

85:                                               ; preds = %67, %64
  %86 = load ptr, ptr %8, align 8, !tbaa !22
  %87 = icmp ne ptr %86, null
  br i1 %87, label %88, label %112

88:                                               ; preds = %85
  %89 = load ptr, ptr %5, align 8, !tbaa !28
  %90 = getelementptr inbounds nuw %struct.stbtt_fontinfo, ptr %89, i32 0, i32 1
  %91 = load ptr, ptr %90, align 8, !tbaa !32
  %92 = load ptr, ptr %5, align 8, !tbaa !28
  %93 = getelementptr inbounds nuw %struct.stbtt_fontinfo, ptr %92, i32 0, i32 8
  %94 = load i32, ptr %93, align 8, !tbaa !38
  %95 = sext i32 %94 to i64
  %96 = getelementptr inbounds i8, ptr %91, i64 %95
  %97 = load i16, ptr %9, align 2, !tbaa !45
  %98 = zext i16 %97 to i32
  %99 = mul nsw i32 4, %98
  %100 = sext i32 %99 to i64
  %101 = getelementptr inbounds i8, ptr %96, i64 %100
  %102 = load i32, ptr %6, align 4, !tbaa !14
  %103 = load i16, ptr %9, align 2, !tbaa !45
  %104 = zext i16 %103 to i32
  %105 = sub nsw i32 %102, %104
  %106 = mul nsw i32 2, %105
  %107 = sext i32 %106 to i64
  %108 = getelementptr inbounds i8, ptr %101, i64 %107
  %109 = call signext i16 @ttSHORT(ptr noundef %108)
  %110 = sext i16 %109 to i32
  %111 = load ptr, ptr %8, align 8, !tbaa !22
  store i32 %110, ptr %111, align 4, !tbaa !14
  br label %112

112:                                              ; preds = %88, %85
  br label %113

113:                                              ; preds = %112, %63
  call void @llvm.lifetime.end.p0(i64 2, ptr %9) #8
  ret void
}

; Function Attrs: nounwind uwtable
define void @stbtt_GetCodepointHMetrics(ptr noundef %0, i32 noundef %1, ptr noundef %2, ptr noundef %3) #0 {
  %5 = alloca ptr, align 8
  %6 = alloca i32, align 4
  %7 = alloca ptr, align 8
  %8 = alloca ptr, align 8
  store ptr %0, ptr %5, align 8, !tbaa !28
  store i32 %1, ptr %6, align 4, !tbaa !14
  store ptr %2, ptr %7, align 8, !tbaa !22
  store ptr %3, ptr %8, align 8, !tbaa !22
  %9 = load ptr, ptr %5, align 8, !tbaa !28
  %10 = load ptr, ptr %5, align 8, !tbaa !28
  %11 = load i32, ptr %6, align 4, !tbaa !14
  %12 = call i32 @stbtt_FindGlyphIndex(ptr noundef %10, i32 noundef %11)
  %13 = load ptr, ptr %7, align 8, !tbaa !22
  %14 = load ptr, ptr %8, align 8, !tbaa !22
  call void @stbtt_GetGlyphHMetrics(ptr noundef %9, i32 noundef %12, ptr noundef %13, ptr noundef %14)
  ret void
}