; Function Attrs: nofree norecurse nosync nounwind memory(read, argmem: readwrite, inaccessiblemem: none) uwtable
define void @stbtt_GetCodepointHMetrics(ptr noundef readonly captures(none) %0, i32 noundef %1, ptr noundef writeonly captures(address_is_null) %2, ptr noundef writeonly captures(address_is_null) %3) local_unnamed_addr #3 {
  %5 = tail call i32 @stbtt_FindGlyphIndex(ptr noundef %0, i32 noundef %1)
  %6 = getelementptr inbounds nuw i8, ptr %0, i64 8
  %7 = load ptr, ptr %6, align 8, !tbaa !23
  %8 = getelementptr inbounds nuw i8, ptr %0, i64 36
  %9 = load i32, ptr %8, align 4, !tbaa !28
  %10 = sext i32 %9 to i64
  %11 = getelementptr inbounds i8, ptr %7, i64 %10
  %12 = getelementptr inbounds nuw i8, ptr %11, i64 34
  %13 = load i8, ptr %12, align 1, !tbaa !12
  %14 = zext i8 %13 to i32
  %15 = shl nuw nsw i32 %14, 8
  %16 = getelementptr inbounds nuw i8, ptr %11, i64 35
  %17 = load i8, ptr %16, align 1, !tbaa !12
  %18 = zext i8 %17 to i32
  %19 = or disjoint i32 %15, %18
  %20 = icmp slt i32 %5, %19
  %.not31.i = icmp eq ptr %2, null
  br i1 %20, label %21, label %49

21:                                               ; preds = %4
  br i1 %.not31.i, label %38, label %22

22:                                               ; preds = %21
  %23 = getelementptr inbounds nuw i8, ptr %0, i64 40
  %24 = load i32, ptr %23, align 8, !tbaa !29
  %25 = sext i32 %24 to i64
  %26 = getelementptr inbounds i8, ptr %7, i64 %25
  %27 = shl nsw i32 %5, 2
  %28 = sext i32 %27 to i64
  %29 = getelementptr inbounds i8, ptr %26, i64 %28
  %30 = load i8, ptr %29, align 1, !tbaa !12
  %31 = zext i8 %30 to i16
  %32 = shl nuw i16 %31, 8
  %33 = getelementptr inbounds nuw i8, ptr %29, i64 1
  %34 = load i8, ptr %33, align 1, !tbaa !12
  %35 = zext i8 %34 to i16
  %36 = or disjoint i16 %32, %35
  %37 = sext i16 %36 to i32
  store i32 %37, ptr %2, align 4, !tbaa !17
  br label %38

38:                                               ; preds = %22, %21
  %.not32.i = icmp eq ptr %3, null
  br i1 %.not32.i, label %stbtt_GetGlyphHMetrics.exit, label %39

39:                                               ; preds = %38
  %40 = getelementptr inbounds nuw i8, ptr %0, i64 40
  %41 = load i32, ptr %40, align 8, !tbaa !29
  %42 = sext i32 %41 to i64
  %43 = getelementptr inbounds i8, ptr %7, i64 %42
  %44 = shl nsw i32 %5, 2
  %45 = sext i32 %44 to i64
  %46 = getelementptr inbounds i8, ptr %43, i64 %45
  %47 = getelementptr inbounds nuw i8, ptr %46, i64 2
  %48 = getelementptr inbounds nuw i8, ptr %46, i64 3
  br label %.sink.split.i

49:                                               ; preds = %4
  br i1 %.not31.i, label %67, label %50

50:                                               ; preds = %49
  %51 = getelementptr inbounds nuw i8, ptr %0, i64 40
  %52 = load i32, ptr %51, align 8, !tbaa !29
  %53 = sext i32 %52 to i64
  %54 = getelementptr inbounds i8, ptr %7, i64 %53
  %55 = shl nuw nsw i32 %19, 2
  %56 = zext nneg i32 %55 to i64
  %57 = getelementptr i8, ptr %54, i64 %56
  %58 = getelementptr i8, ptr %57, i64 -4
  %59 = load i8, ptr %58, align 1, !tbaa !12
  %60 = zext i8 %59 to i16
  %61 = shl nuw i16 %60, 8
  %62 = getelementptr i8, ptr %57, i64 -3
  %63 = load i8, ptr %62, align 1, !tbaa !12
  %64 = zext i8 %63 to i16
  %65 = or disjoint i16 %61, %64
  %66 = sext i16 %65 to i32
  store i32 %66, ptr %2, align 4, !tbaa !17
  br label %67

67:                                               ; preds = %50, %49
  %.not30.i = icmp eq ptr %3, null
  br i1 %.not30.i, label %stbtt_GetGlyphHMetrics.exit, label %68

68:                                               ; preds = %67
  %69 = getelementptr inbounds nuw i8, ptr %0, i64 40
  %70 = load i32, ptr %69, align 8, !tbaa !29
  %71 = sext i32 %70 to i64
  %72 = getelementptr inbounds i8, ptr %7, i64 %71
  %73 = shl nuw nsw i32 %19, 2
  %74 = zext nneg i32 %73 to i64
  %75 = getelementptr inbounds nuw i8, ptr %72, i64 %74
  %76 = sub nsw i32 %5, %19
  %77 = shl nsw i32 %76, 1
  %78 = sext i32 %77 to i64
  %79 = getelementptr inbounds i8, ptr %75, i64 %78
  %80 = getelementptr inbounds nuw i8, ptr %79, i64 1
  br label %.sink.split.i

.sink.split.i:                                    ; preds = %68, %39
  %.sink35.in.i = phi ptr [ %80, %68 ], [ %48, %39 ]
  %.sink.in.in.in.i = phi ptr [ %79, %68 ], [ %47, %39 ]
  %.sink.in.in.i = load i8, ptr %.sink.in.in.in.i, align 1, !tbaa !12
  %.sink.in.i = zext i8 %.sink.in.in.i to i16
  %.sink.i = shl nuw i16 %.sink.in.i, 8
  %.sink35.i = load i8, ptr %.sink35.in.i, align 1, !tbaa !12
  %81 = zext i8 %.sink35.i to i16
  %82 = or disjoint i16 %.sink.i, %81
  %83 = sext i16 %82 to i32
  store i32 %83, ptr %3, align 4, !tbaa !17
  br label %stbtt_GetGlyphHMetrics.exit

stbtt_GetGlyphHMetrics.exit:                      ; preds = %38, %67, %.sink.split.i
  ret void
}